; Function Attrs: inlinehint nounwind uwtable
define internal void @_ZThn16_N4absl12_GLOBAL__N_140CordzStringTest_AppendStringToEmpty_TestD1Ev(ptr noundef initializes((-16, -8), (0, 8)) %0) unnamed_addr #23 align 2 personality ptr @__gxx_personality_v0 {
  %2 = getelementptr inbounds i8, ptr %0, i64 -16
  store ptr getelementptr inbounds nuw inrange(-16, 48) (i8, ptr @_ZTVN4absl12_GLOBAL__N_115CordzStringTestE, i64 16), ptr %2, align 8, !tbaa !18
  store ptr getelementptr inbounds nuw inrange(-16, 16) (i8, ptr @_ZTVN4absl12_GLOBAL__N_115CordzStringTestE, i64 80), ptr %0, align 8, !tbaa !18
  %3 = getelementptr inbounds nuw i8, ptr %0, i64 8
  %4 = load i32, ptr %3, align 4, !tbaa !100
  invoke void @_ZN4absl13cord_internal23set_cordz_mean_intervalEi(i32 noundef %4)
          to label %5 unwind label %8

5:                                                ; preds = %1
  %6 = load i32, ptr %3, align 4, !tbaa !100
  %7 = sext i32 %6 to i64
  invoke void @_ZN4absl13cord_internal33cordz_set_next_sample_for_testingEl(i64 noundef %7)
          to label %_ZN4absl12_GLOBAL__N_115CordzStringTestD2Ev.exit unwind label %8

8:                                                ; preds = %5, %1
  %9 = landingpad { ptr, i32 }
          catch ptr null
  %10 = extractvalue { ptr, i32 } %9, 0
  tail call void @__clang_call_terminate(ptr %10) #37
  unreachable

_ZN4absl12_GLOBAL__N_115CordzStringTestD2Ev.exit: ; preds = %5
  tail call void @_ZN7testing4TestD2Ev(ptr noundef nonnull align 8 dereferenceable(28) %2) #17
  ret void
}